target datalayout = "e-m:e-p270:32:32-p271:32:32-p272:64:64-i64:64-i128:128-f80:128-n8:16:32:64-S128"
target triple = "x86_64-pc-linux-gnu"

%struct.gz_state = type { %struct.gzFile_s, i32, i32, ptr, i32, i32, ptr, ptr, i32, i32, i64, i32, i32, i32, i32, i32, i64, i32, i32, ptr, %struct.z_stream_s }
%struct.gzFile_s = type { i32, ptr, i64 }
%struct.z_stream_s = type { ptr, i32, i64, ptr, i32, i64, ptr, ptr, ptr, ptr, ptr, i32, i64, i64 }

@.str.5 = private unnamed_addr constant [39 x i8] c"internal error: deflate stream corrupt\00", align 1

; Function Attrs: nounwind uwtable
define internal i32 @gz_comp(ptr noundef %0, i32 noundef %1) #0 {
  %3 = alloca i32, align 4
  %4 = alloca ptr, align 8
  %5 = alloca i32, align 4
  %6 = alloca i32, align 4
  %7 = alloca i32, align 4
  %8 = alloca i32, align 4
  %9 = alloca i32, align 4
  %10 = alloca i32, align 4
  %11 = alloca ptr, align 8
  %12 = alloca i32, align 4
  store ptr %0, ptr %4, align 8, !tbaa !8
  store i32 %1, ptr %5, align 4, !tbaa !9
  call void @llvm.lifetime.start.p0(i64 4, ptr %6) #10
  call void @llvm.lifetime.start.p0(i64 4, ptr %7) #10
  call void @llvm.lifetime.start.p0(i64 4, ptr %8) #10
  call void @llvm.lifetime.start.p0(i64 4, ptr %9) #10
  call void @llvm.lifetime.start.p0(i64 4, ptr %10) #10
  store i32 1073741824, ptr %10, align 4, !tbaa !9
  call void @llvm.lifetime.start.p0(i64 8, ptr %11) #10
  %13 = load ptr, ptr %4, align 8, !tbaa !8
  %14 = getelementptr inbounds nuw %struct.gz_state, ptr %13, i32 0, i32 20
  store ptr %14, ptr %11, align 8, !tbaa !30
  %15 = load ptr, ptr %4, align 8, !tbaa !8
  %16 = getelementptr inbounds nuw %struct.gz_state, ptr %15, i32 0, i32 4
  %17 = load i32, ptr %16, align 8, !tbaa !20
  %18 = icmp eq i32 %17, 0
  br i1 %18, label %19, label %24

19:                                               ; preds = %2
  %20 = load ptr, ptr %4, align 8, !tbaa !8
  %21 = call i32 @gz_init(ptr noundef %20)
  %22 = icmp eq i32 %21, -1
  br i1 %22, label %23, label %24

23:                                               ; preds = %19
  store i32 -1, ptr %3, align 4
  store i32 1, ptr %12, align 4
  br label %226

24:                                               ; preds = %19, %2
  %25 = load ptr, ptr %4, align 8, !tbaa !8
  %26 = getelementptr inbounds nuw %struct.gz_state, ptr %25, i32 0, i32 8
  %27 = load i32, ptr %26, align 8, !tbaa !40
  %28 = icmp ne i32 %27, 0
  br i1 %28, label %29, label %79

29:                                               ; preds = %24
  br label %30

30:                                               ; preds = %66, %29
  %31 = load ptr, ptr %11, align 8, !tbaa !30
  %32 = getelementptr inbounds nuw %struct.z_stream_s, ptr %31, i32 0, i32 1
  %33 = load i32, ptr %32, align 8, !tbaa !32
  %34 = icmp ne i32 %33, 0
  br i1 %34, label %35, label %78

35:                                               ; preds = %30
  %36 = load ptr, ptr %11, align 8, !tbaa !30
  %37 = getelementptr inbounds nuw %struct.z_stream_s, ptr %36, i32 0, i32 1
  %38 = load i32, ptr %37, align 8, !tbaa !32
  %39 = load i32, ptr %10, align 4, !tbaa !9
  %40 = icmp ugt i32 %38, %39
  br i1 %40, label %41, label %43

41:                                               ; preds = %35
  %42 = load i32, ptr %10, align 4, !tbaa !9
  br label %47

43:                                               ; preds = %35
  %44 = load ptr, ptr %11, align 8, !tbaa !30
  %45 = getelementptr inbounds nuw %struct.z_stream_s, ptr %44, i32 0, i32 1
  %46 = load i32, ptr %45, align 8, !tbaa !32
  br label %47

47:                                               ; preds = %43, %41
  %48 = phi i32 [ %42, %41 ], [ %46, %43 ]
  store i32 %48, ptr %9, align 4, !tbaa !9
  %49 = load ptr, ptr %4, align 8, !tbaa !8
  %50 = getelementptr inbounds nuw %struct.gz_state, ptr %49, i32 0, i32 2
  %51 = load i32, ptr %50, align 4, !tbaa !50
  %52 = load ptr, ptr %11, align 8, !tbaa !30
  %53 = getelementptr inbounds nuw %struct.z_stream_s, ptr %52, i32 0, i32 0
  %54 = load ptr, ptr %53, align 8, !tbaa !33
  %55 = load i32, ptr %9, align 4, !tbaa !9
  %56 = zext i32 %55 to i64
  %57 = call i64 @write(i32 noundef %51, ptr noundef %54, i64 noundef %56)
  %58 = trunc i64 %57 to i32
  store i32 %58, ptr %7, align 4, !tbaa !9
  %59 = load i32, ptr %7, align 4, !tbaa !9
  %60 = icmp slt i32 %59, 0
  br i1 %60, label %61, label %66

61:                                               ; preds = %47
  %62 = load ptr, ptr %4, align 8, !tbaa !8
  %63 = call ptr @__errno_location() #13
  %64 = load i32, ptr %63, align 4, !tbaa !9
  %65 = call ptr @strerror(i32 noundef %64) #10
  call void @gz_error(ptr noundef %62, i32 noundef -1, ptr noundef %65)
  store i32 -1, ptr %3, align 4
  store i32 1, ptr %12, align 4
  br label %226

66:                                               ; preds = %47
  %67 = load i32, ptr %7, align 4, !tbaa !9
  %68 = load ptr, ptr %11, align 8, !tbaa !30
  %69 = getelementptr inbounds nuw %struct.z_stream_s, ptr %68, i32 0, i32 1
  %70 = load i32, ptr %69, align 8, !tbaa !32
  %71 = sub i32 %70, %67
  store i32 %71, ptr %69, align 8, !tbaa !32
  %72 = load i32, ptr %7, align 4, !tbaa !9
  %73 = load ptr, ptr %11, align 8, !tbaa !30
  %74 = getelementptr inbounds nuw %struct.z_stream_s, ptr %73, i32 0, i32 0
  %75 = load ptr, ptr %74, align 8, !tbaa !33
  %76 = sext i32 %72 to i64
  %77 = getelementptr inbounds i8, ptr %75, i64 %76
  store ptr %77, ptr %74, align 8, !tbaa !33
  br label %30, !llvm.loop !51

78:                                               ; preds = %30
  store i32 0, ptr %3, align 4
  store i32 1, ptr %12, align 4
  br label %226

79:                                               ; preds = %24
  %80 = load ptr, ptr %4, align 8, !tbaa !8
  %81 = getelementptr inbounds nuw %struct.gz_state, ptr %80, i32 0, i32 15
  %82 = load i32, ptr %81, align 8, !tbaa !52
  %83 = icmp ne i32 %82, 0
  br i1 %83, label %84, label %95

84:                                               ; preds = %79
  %85 = load ptr, ptr %11, align 8, !tbaa !30
  %86 = getelementptr inbounds nuw %struct.z_stream_s, ptr %85, i32 0, i32 1
  %87 = load i32, ptr %86, align 8, !tbaa !32
  %88 = icmp eq i32 %87, 0
  br i1 %88, label %89, label %90

89:                                               ; preds = %84
  store i32 0, ptr %3, align 4
  store i32 1, ptr %12, align 4
  br label %226

90:                                               ; preds = %84
  %91 = load ptr, ptr %11, align 8, !tbaa !30
  %92 = call i32 @deflateReset(ptr noundef %91)
  %93 = load ptr, ptr %4, align 8, !tbaa !8
  %94 = getelementptr inbounds nuw %struct.gz_state, ptr %93, i32 0, i32 15
  store i32 0, ptr %94, align 8, !tbaa !52
  br label %95

95:                                               ; preds = %90, %79
  store i32 0, ptr %6, align 4, !tbaa !9
  br label %96

96:                                               ; preds = %216, %95
  %97 = load ptr, ptr %11, align 8, !tbaa !30
  %98 = getelementptr inbounds nuw %struct.z_stream_s, ptr %97, i32 0, i32 4
  %99 = load i32, ptr %98, align 8, !tbaa !47
  %100 = icmp eq i32 %99, 0
  br i1 %100, label %110, label %101

101:                                              ; preds = %96
  %102 = load i32, ptr %5, align 4, !tbaa !9
  %103 = icmp ne i32 %102, 0
  br i1 %103, label %104, label %199

104:                                              ; preds = %101
  %105 = load i32, ptr %5, align 4, !tbaa !9
  %106 = icmp ne i32 %105, 4
  br i1 %106, label %110, label %107

107:                                              ; preds = %104
  %108 = load i32, ptr %6, align 4, !tbaa !9
  %109 = icmp eq i32 %108, 1
  br i1 %109, label %110, label %199

110:                                              ; preds = %107, %104, %96
  br label %111

111:                                              ; preds = %168, %110
  %112 = load ptr, ptr %11, align 8, !tbaa !30
  %113 = getelementptr inbounds nuw %struct.z_stream_s, ptr %112, i32 0, i32 3
  %114 = load ptr, ptr %113, align 8, !tbaa !48
  %115 = load ptr, ptr %4, align 8, !tbaa !8
  %116 = getelementptr inbounds nuw %struct.gz_state, ptr %115, i32 0, i32 0
  %117 = getelementptr inbounds nuw %struct.gzFile_s, ptr %116, i32 0, i32 1
  %118 = load ptr, ptr %117, align 8, !tbaa !49
  %119 = icmp ugt ptr %114, %118
  br i1 %119, label %120, label %176

120:                                              ; preds = %111
  %121 = load ptr, ptr %11, align 8, !tbaa !30
  %122 = getelementptr inbounds nuw %struct.z_stream_s, ptr %121, i32 0, i32 3
  %123 = load ptr, ptr %122, align 8, !tbaa !48
  %124 = load ptr, ptr %4, align 8, !tbaa !8
  %125 = getelementptr inbounds nuw %struct.gz_state, ptr %124, i32 0, i32 0
  %126 = getelementptr inbounds nuw %struct.gzFile_s, ptr %125, i32 0, i32 1
  %127 = load ptr, ptr %126, align 8, !tbaa !49
  %128 = ptrtoint ptr %123 to i64
  %129 = ptrtoint ptr %127 to i64
  %130 = sub i64 %128, %129
  %131 = load i32, ptr %10, align 4, !tbaa !9
  %132 = sext i32 %131 to i64
  %133 = icmp sgt i64 %130, %132
  br i1 %133, label %134, label %136

134:                                              ; preds = %120
  %135 = load i32, ptr %10, align 4, !tbaa !9
  br label %148

136:                                              ; preds = %120
  %137 = load ptr, ptr %11, align 8, !tbaa !30
  %138 = getelementptr inbounds nuw %struct.z_stream_s, ptr %137, i32 0, i32 3
  %139 = load ptr, ptr %138, align 8, !tbaa !48
  %140 = load ptr, ptr %4, align 8, !tbaa !8
  %141 = getelementptr inbounds nuw %struct.gz_state, ptr %140, i32 0, i32 0
  %142 = getelementptr inbounds nuw %struct.gzFile_s, ptr %141, i32 0, i32 1
  %143 = load ptr, ptr %142, align 8, !tbaa !49
  %144 = ptrtoint ptr %139 to i64
  %145 = ptrtoint ptr %143 to i64
  %146 = sub i64 %144, %145
  %147 = trunc i64 %146 to i32
  br label %148

148:                                              ; preds = %136, %134
  %149 = phi i32 [ %135, %134 ], [ %147, %136 ]
  store i32 %149, ptr %9, align 4, !tbaa !9
  %150 = load ptr, ptr %4, align 8, !tbaa !8
  %151 = getelementptr inbounds nuw %struct.gz_state, ptr %150, i32 0, i32 2
  %152 = load i32, ptr %151, align 4, !tbaa !50
  %153 = load ptr, ptr %4, align 8, !tbaa !8
  %154 = getelementptr inbounds nuw %struct.gz_state, ptr %153, i32 0, i32 0
  %155 = getelementptr inbounds nuw %struct.gzFile_s, ptr %154, i32 0, i32 1
  %156 = load ptr, ptr %155, align 8, !tbaa !49
  %157 = load i32, ptr %9, align 4, !tbaa !9
  %158 = zext i32 %157 to i64
  %159 = call i64 @write(i32 noundef %152, ptr noundef %156, i64 noundef %158)
  %160 = trunc i64 %159 to i32
  store i32 %160, ptr %7, align 4, !tbaa !9
  %161 = load i32, ptr %7, align 4, !tbaa !9
  %162 = icmp slt i32 %161, 0
  br i1 %162, label %163, label %168

163:                                              ; preds = %148
  %164 = load ptr, ptr %4, align 8, !tbaa !8
  %165 = call ptr @__errno_location() #13
  %166 = load i32, ptr %165, align 4, !tbaa !9
  %167 = call ptr @strerror(i32 noundef %166) #10
  call void @gz_error(ptr noundef %164, i32 noundef -1, ptr noundef %167)
  store i32 -1, ptr %3, align 4
  store i32 1, ptr %12, align 4
  br label %226

168:                                              ; preds = %148
  %169 = load i32, ptr %7, align 4, !tbaa !9
  %170 = load ptr, ptr %4, align 8, !tbaa !8
  %171 = getelementptr inbounds nuw %struct.gz_state, ptr %170, i32 0, i32 0
  %172 = getelementptr inbounds nuw %struct.gzFile_s, ptr %171, i32 0, i32 1
  %173 = load ptr, ptr %172, align 8, !tbaa !49
  %174 = sext i32 %169 to i64
  %175 = getelementptr inbounds i8, ptr %173, i64 %174
  store ptr %175, ptr %172, align 8, !tbaa !49
  br label %111, !llvm.loop !53

176:                                              ; preds = %111
  %177 = load ptr, ptr %11, align 8, !tbaa !30
  %178 = getelementptr inbounds nuw %struct.z_stream_s, ptr %177, i32 0, i32 4
  %179 = load i32, ptr %178, align 8, !tbaa !47
  %180 = icmp eq i32 %179, 0
  br i1 %180, label %181, label %198

181:                                              ; preds = %176
  %182 = load ptr, ptr %4, align 8, !tbaa !8
  %183 = getelementptr inbounds nuw %struct.gz_state, ptr %182, i32 0, i32 4
  %184 = load i32, ptr %183, align 8, !tbaa !20
  %185 = load ptr, ptr %11, align 8, !tbaa !30
  %186 = getelementptr inbounds nuw %struct.z_stream_s, ptr %185, i32 0, i32 4
  store i32 %184, ptr %186, align 8, !tbaa !47
  %187 = load ptr, ptr %4, align 8, !tbaa !8
  %188 = getelementptr inbounds nuw %struct.gz_state, ptr %187, i32 0, i32 7
  %189 = load ptr, ptr %188, align 8, !tbaa !41
  %190 = load ptr, ptr %11, align 8, !tbaa !30
  %191 = getelementptr inbounds nuw %struct.z_stream_s, ptr %190, i32 0, i32 3
  store ptr %189, ptr %191, align 8, !tbaa !48
  %192 = load ptr, ptr %4, align 8, !tbaa !8
  %193 = getelementptr inbounds nuw %struct.gz_state, ptr %192, i32 0, i32 7
  %194 = load ptr, ptr %193, align 8, !tbaa !41
  %195 = load ptr, ptr %4, align 8, !tbaa !8
  %196 = getelementptr inbounds nuw %struct.gz_state, ptr %195, i32 0, i32 0
  %197 = getelementptr inbounds nuw %struct.gzFile_s, ptr %196, i32 0, i32 1
  store ptr %194, ptr %197, align 8, !tbaa !49
  br label %198

198:                                              ; preds = %181, %176
  br label %199

199:                                              ; preds = %198, %107, %101
  %200 = load ptr, ptr %11, align 8, !tbaa !30
  %201 = getelementptr inbounds nuw %struct.z_stream_s, ptr %200, i32 0, i32 4
  %202 = load i32, ptr %201, align 8, !tbaa !47
  store i32 %202, ptr %8, align 4, !tbaa !9
  %203 = load ptr, ptr %11, align 8, !tbaa !30
  %204 = load i32, ptr %5, align 4, !tbaa !9
  %205 = call i32 @deflate(ptr noundef %203, i32 noundef %204)
  store i32 %205, ptr %6, align 4, !tbaa !9
  %206 = load i32, ptr %6, align 4, !tbaa !9
  %207 = icmp eq i32 %206, -2
  br i1 %207, label %208, label %210

208:                                              ; preds = %199
  %209 = load ptr, ptr %4, align 8, !tbaa !8
  call void @gz_error(ptr noundef %209, i32 noundef -2, ptr noundef @.str.5)
  store i32 -1, ptr %3, align 4
  store i32 1, ptr %12, align 4
  br label %226

210:                                              ; preds = %199
  %211 = load ptr, ptr %11, align 8, !tbaa !30
  %212 = getelementptr inbounds nuw %struct.z_stream_s, ptr %211, i32 0, i32 4
  %213 = load i32, ptr %212, align 8, !tbaa !47
  %214 = load i32, ptr %8, align 4, !tbaa !9
  %215 = sub i32 %214, %213
  store i32 %215, ptr %8, align 4, !tbaa !9
  br label %216

216:                                              ; preds = %210
  %217 = load i32, ptr %8, align 4, !tbaa !9
  %218 = icmp ne i32 %217, 0
  br i1 %218, label %96, label %219, !llvm.loop !54

219:                                              ; preds = %216
  %220 = load i32, ptr %5, align 4, !tbaa !9
  %221 = icmp eq i32 %220, 4
  br i1 %221, label %222, label %225

222:                                              ; preds = %219
  %223 = load ptr, ptr %4, align 8, !tbaa !8
  %224 = getelementptr inbounds nuw %struct.gz_state, ptr %223, i32 0, i32 15
  store i32 1, ptr %224, align 8, !tbaa !52
  br label %225

225:                                              ; preds = %222, %219
  store i32 0, ptr %3, align 4
  store i32 1, ptr %12, align 4
  br label %226

226:                                              ; preds = %225, %208, %163, %89, %78, %61, %23
  call void @llvm.lifetime.end.p0(i64 8, ptr %11) #10
  call void @llvm.lifetime.end.p0(i64 4, ptr %10) #10
  call void @llvm.lifetime.end.p0(i64 4, ptr %9) #10
  call void @llvm.lifetime.end.p0(i64 4, ptr %8) #10
  call void @llvm.lifetime.end.p0(i64 4, ptr %7) #10
  call void @llvm.lifetime.end.p0(i64 4, ptr %6) #10
  %227 = load i32, ptr %3, align 4
  ret i32 %227
}